; Function Attrs: nounwind uwtable
define internal noundef i32 @OnUpdateFiberStackSize(ptr nocapture noundef readonly %0, ptr noundef %1, ptr nocapture readnone %2, ptr nocapture readnone %3, ptr nocapture readnone %4, i32 %5) #0 {
  %.not = icmp eq ptr %1, null
  br i1 %.not, label %12, label %7

7:                                                ; preds = %6
  %8 = load ptr, ptr %0, align 8
  %9 = tail call i64 @zend_ini_parse_quantity_warn(ptr noundef nonnull %1, ptr noundef %8) #30
  %10 = icmp slt i64 %9, 0
  br i1 %10, label %11, label %12

11:                                               ; preds = %7
  tail call void (i32, ptr, ...) @zend_error(i32 noundef 2, ptr noundef nonnull @.str.49)
  br label %13

12:                                               ; preds = %6, %7
  %storemerge = phi i64 [ %9, %7 ], [ 2097152, %6 ]
  store i64 %storemerge, ptr getelementptr inbounds (%struct._zend_executor_globals, ptr @executor_globals, i64 0, i32 71), align 8
  br label %13

13:                                               ; preds = %12, %11
  %.0 = phi i32 [ -1, %11 ], [ 0, %12 ]
  ret i32 %.0
}